target datalayout = "e-m:e-p270:32:32-p271:32:32-p272:64:64-i64:64-i128:128-f80:128-n8:16:32:64-S128"
target triple = "x86_64-pc-linux-gnu"

; Function Attrs: nounwind uwtable
define internal i32 @sse16_c(ptr noundef %0, ptr noundef %1, ptr noundef %2, i64 noundef %3, i32 noundef %4) #2 {
  %6 = alloca ptr, align 8
  %7 = alloca ptr, align 8
  %8 = alloca ptr, align 8
  %9 = alloca i64, align 8
  %10 = alloca i32, align 4
  %11 = alloca i32, align 4
  %12 = alloca i32, align 4
  %13 = alloca ptr, align 8
  store ptr %0, ptr %6, align 8, !tbaa !22
  store ptr %1, ptr %7, align 8, !tbaa !24
  store ptr %2, ptr %8, align 8, !tbaa !24
  store i64 %3, ptr %9, align 8, !tbaa !26
  store i32 %4, ptr %10, align 4, !tbaa !11
  call void @llvm.lifetime.start.p0(i64 4, ptr %11) #9
  store i32 0, ptr %11, align 4, !tbaa !11
  call void @llvm.lifetime.start.p0(i64 4, ptr %12) #9
  call void @llvm.lifetime.start.p0(i64 8, ptr %13) #9
  store ptr getelementptr inbounds (i32, ptr @ff_square_tab, i64 256), ptr %13, align 8, !tbaa !83
  store i32 0, ptr %12, align 4, !tbaa !11
  br label %14

14:                                               ; preds = %265, %5
  %15 = load i32, ptr %12, align 4, !tbaa !11
  %16 = load i32, ptr %10, align 4, !tbaa !11
  %17 = icmp slt i32 %15, %16
  br i1 %17, label %18, label %268

18:                                               ; preds = %14
  %19 = load ptr, ptr %13, align 8, !tbaa !83
  %20 = load ptr, ptr %7, align 8, !tbaa !24
  %21 = getelementptr inbounds i8, ptr %20, i64 0
  %22 = load i8, ptr %21, align 1, !tbaa !36
  %23 = zext i8 %22 to i32
  %24 = load ptr, ptr %8, align 8, !tbaa !24
  %25 = getelementptr inbounds i8, ptr %24, i64 0
  %26 = load i8, ptr %25, align 1, !tbaa !36
  %27 = zext i8 %26 to i32
  %28 = sub nsw i32 %23, %27
  %29 = sext i32 %28 to i64
  %30 = getelementptr inbounds i32, ptr %19, i64 %29
  %31 = load i32, ptr %30, align 4, !tbaa !11
  %32 = load i32, ptr %11, align 4, !tbaa !11
  %33 = add i32 %32, %31
  store i32 %33, ptr %11, align 4, !tbaa !11
  %34 = load ptr, ptr %13, align 8, !tbaa !83
  %35 = load ptr, ptr %7, align 8, !tbaa !24
  %36 = getelementptr inbounds i8, ptr %35, i64 1
  %37 = load i8, ptr %36, align 1, !tbaa !36
  %38 = zext i8 %37 to i32
  %39 = load ptr, ptr %8, align 8, !tbaa !24
  %40 = getelementptr inbounds i8, ptr %39, i64 1
  %41 = load i8, ptr %40, align 1, !tbaa !36
  %42 = zext i8 %41 to i32
  %43 = sub nsw i32 %38, %42
  %44 = sext i32 %43 to i64
  %45 = getelementptr inbounds i32, ptr %34, i64 %44
  %46 = load i32, ptr %45, align 4, !tbaa !11
  %47 = load i32, ptr %11, align 4, !tbaa !11
  %48 = add i32 %47, %46
  store i32 %48, ptr %11, align 4, !tbaa !11
  %49 = load ptr, ptr %13, align 8, !tbaa !83
  %50 = load ptr, ptr %7, align 8, !tbaa !24
  %51 = getelementptr inbounds i8, ptr %50, i64 2
  %52 = load i8, ptr %51, align 1, !tbaa !36
  %53 = zext i8 %52 to i32
  %54 = load ptr, ptr %8, align 8, !tbaa !24
  %55 = getelementptr inbounds i8, ptr %54, i64 2
  %56 = load i8, ptr %55, align 1, !tbaa !36
  %57 = zext i8 %56 to i32
  %58 = sub nsw i32 %53, %57
  %59 = sext i32 %58 to i64
  %60 = getelementptr inbounds i32, ptr %49, i64 %59
  %61 = load i32, ptr %60, align 4, !tbaa !11
  %62 = load i32, ptr %11, align 4, !tbaa !11
  %63 = add i32 %62, %61
  store i32 %63, ptr %11, align 4, !tbaa !11
  %64 = load ptr, ptr %13, align 8, !tbaa !83
  %65 = load ptr, ptr %7, align 8, !tbaa !24
  %66 = getelementptr inbounds i8, ptr %65, i64 3
  %67 = load i8, ptr %66, align 1, !tbaa !36
  %68 = zext i8 %67 to i32
  %69 = load ptr, ptr %8, align 8, !tbaa !24
  %70 = getelementptr inbounds i8, ptr %69, i64 3
  %71 = load i8, ptr %70, align 1, !tbaa !36
  %72 = zext i8 %71 to i32
  %73 = sub nsw i32 %68, %72
  %74 = sext i32 %73 to i64
  %75 = getelementptr inbounds i32, ptr %64, i64 %74
  %76 = load i32, ptr %75, align 4, !tbaa !11
  %77 = load i32, ptr %11, align 4, !tbaa !11
  %78 = add i32 %77, %76
  store i32 %78, ptr %11, align 4, !tbaa !11
  %79 = load ptr, ptr %13, align 8, !tbaa !83
  %80 = load ptr, ptr %7, align 8, !tbaa !24
  %81 = getelementptr inbounds i8, ptr %80, i64 4
  %82 = load i8, ptr %81, align 1, !tbaa !36
  %83 = zext i8 %82 to i32
  %84 = load ptr, ptr %8, align 8, !tbaa !24
  %85 = getelementptr inbounds i8, ptr %84, i64 4
  %86 = load i8, ptr %85, align 1, !tbaa !36
  %87 = zext i8 %86 to i32
  %88 = sub nsw i32 %83, %87
  %89 = sext i32 %88 to i64
  %90 = getelementptr inbounds i32, ptr %79, i64 %89
  %91 = load i32, ptr %90, align 4, !tbaa !11
  %92 = load i32, ptr %11, align 4, !tbaa !11
  %93 = add i32 %92, %91
  store i32 %93, ptr %11, align 4, !tbaa !11
  %94 = load ptr, ptr %13, align 8, !tbaa !83
  %95 = load ptr, ptr %7, align 8, !tbaa !24
  %96 = getelementptr inbounds i8, ptr %95, i64 5
  %97 = load i8, ptr %96, align 1, !tbaa !36
  %98 = zext i8 %97 to i32
  %99 = load ptr, ptr %8, align 8, !tbaa !24
  %100 = getelementptr inbounds i8, ptr %99, i64 5
  %101 = load i8, ptr %100, align 1, !tbaa !36
  %102 = zext i8 %101 to i32
  %103 = sub nsw i32 %98, %102
  %104 = sext i32 %103 to i64
  %105 = getelementptr inbounds i32, ptr %94, i64 %104
  %106 = load i32, ptr %105, align 4, !tbaa !11
  %107 = load i32, ptr %11, align 4, !tbaa !11
  %108 = add i32 %107, %106
  store i32 %108, ptr %11, align 4, !tbaa !11
  %109 = load ptr, ptr %13, align 8, !tbaa !83
  %110 = load ptr, ptr %7, align 8, !tbaa !24
  %111 = getelementptr inbounds i8, ptr %110, i64 6
  %112 = load i8, ptr %111, align 1, !tbaa !36
  %113 = zext i8 %112 to i32
  %114 = load ptr, ptr %8, align 8, !tbaa !24
  %115 = getelementptr inbounds i8, ptr %114, i64 6
  %116 = load i8, ptr %115, align 1, !tbaa !36
  %117 = zext i8 %116 to i32
  %118 = sub nsw i32 %113, %117
  %119 = sext i32 %118 to i64
  %120 = getelementptr inbounds i32, ptr %109, i64 %119
  %121 = load i32, ptr %120, align 4, !tbaa !11
  %122 = load i32, ptr %11, align 4, !tbaa !11
  %123 = add i32 %122, %121
  store i32 %123, ptr %11, align 4, !tbaa !11
  %124 = load ptr, ptr %13, align 8, !tbaa !83
  %125 = load ptr, ptr %7, align 8, !tbaa !24
  %126 = getelementptr inbounds i8, ptr %125, i64 7
  %127 = load i8, ptr %126, align 1, !tbaa !36
  %128 = zext i8 %127 to i32
  %129 = load ptr, ptr %8, align 8, !tbaa !24
  %130 = getelementptr inbounds i8, ptr %129, i64 7
  %131 = load i8, ptr %130, align 1, !tbaa !36
  %132 = zext i8 %131 to i32
  %133 = sub nsw i32 %128, %132
  %134 = sext i32 %133 to i64
  %135 = getelementptr inbounds i32, ptr %124, i64 %134
  %136 = load i32, ptr %135, align 4, !tbaa !11
  %137 = load i32, ptr %11, align 4, !tbaa !11
  %138 = add i32 %137, %136
  store i32 %138, ptr %11, align 4, !tbaa !11
  %139 = load ptr, ptr %13, align 8, !tbaa !83
  %140 = load ptr, ptr %7, align 8, !tbaa !24
  %141 = getelementptr inbounds i8, ptr %140, i64 8
  %142 = load i8, ptr %141, align 1, !tbaa !36
  %143 = zext i8 %142 to i32
  %144 = load ptr, ptr %8, align 8, !tbaa !24
  %145 = getelementptr inbounds i8, ptr %144, i64 8
  %146 = load i8, ptr %145, align 1, !tbaa !36
  %147 = zext i8 %146 to i32
  %148 = sub nsw i32 %143, %147
  %149 = sext i32 %148 to i64
  %150 = getelementptr inbounds i32, ptr %139, i64 %149
  %151 = load i32, ptr %150, align 4, !tbaa !11
  %152 = load i32, ptr %11, align 4, !tbaa !11
  %153 = add i32 %152, %151
  store i32 %153, ptr %11, align 4, !tbaa !11
  %154 = load ptr, ptr %13, align 8, !tbaa !83
  %155 = load ptr, ptr %7, align 8, !tbaa !24
  %156 = getelementptr inbounds i8, ptr %155, i64 9
  %157 = load i8, ptr %156, align 1, !tbaa !36
  %158 = zext i8 %157 to i32
  %159 = load ptr, ptr %8, align 8, !tbaa !24
  %160 = getelementptr inbounds i8, ptr %159, i64 9
  %161 = load i8, ptr %160, align 1, !tbaa !36
  %162 = zext i8 %161 to i32
  %163 = sub nsw i32 %158, %162
  %164 = sext i32 %163 to i64
  %165 = getelementptr inbounds i32, ptr %154, i64 %164
  %166 = load i32, ptr %165, align 4, !tbaa !11
  %167 = load i32, ptr %11, align 4, !tbaa !11
  %168 = add i32 %167, %166
  store i32 %168, ptr %11, align 4, !tbaa !11
  %169 = load ptr, ptr %13, align 8, !tbaa !83
  %170 = load ptr, ptr %7, align 8, !tbaa !24
  %171 = getelementptr inbounds i8, ptr %170, i64 10
  %172 = load i8, ptr %171, align 1, !tbaa !36
  %173 = zext i8 %172 to i32
  %174 = load ptr, ptr %8, align 8, !tbaa !24
  %175 = getelementptr inbounds i8, ptr %174, i64 10
  %176 = load i8, ptr %175, align 1, !tbaa !36
  %177 = zext i8 %176 to i32
  %178 = sub nsw i32 %173, %177
  %179 = sext i32 %178 to i64
  %180 = getelementptr inbounds i32, ptr %169, i64 %179
  %181 = load i32, ptr %180, align 4, !tbaa !11
  %182 = load i32, ptr %11, align 4, !tbaa !11
  %183 = add i32 %182, %181
  store i32 %183, ptr %11, align 4, !tbaa !11
  %184 = load ptr, ptr %13, align 8, !tbaa !83
  %185 = load ptr, ptr %7, align 8, !tbaa !24
  %186 = getelementptr inbounds i8, ptr %185, i64 11
  %187 = load i8, ptr %186, align 1, !tbaa !36
  %188 = zext i8 %187 to i32
  %189 = load ptr, ptr %8, align 8, !tbaa !24
  %190 = getelementptr inbounds i8, ptr %189, i64 11
  %191 = load i8, ptr %190, align 1, !tbaa !36
  %192 = zext i8 %191 to i32
  %193 = sub nsw i32 %188, %192
  %194 = sext i32 %193 to i64
  %195 = getelementptr inbounds i32, ptr %184, i64 %194
  %196 = load i32, ptr %195, align 4, !tbaa !11
  %197 = load i32, ptr %11, align 4, !tbaa !11
  %198 = add i32 %197, %196
  store i32 %198, ptr %11, align 4, !tbaa !11
  %199 = load ptr, ptr %13, align 8, !tbaa !83
  %200 = load ptr, ptr %7, align 8, !tbaa !24
  %201 = getelementptr inbounds i8, ptr %200, i64 12
  %202 = load i8, ptr %201, align 1, !tbaa !36
  %203 = zext i8 %202 to i32
  %204 = load ptr, ptr %8, align 8, !tbaa !24
  %205 = getelementptr inbounds i8, ptr %204, i64 12
  %206 = load i8, ptr %205, align 1, !tbaa !36
  %207 = zext i8 %206 to i32
  %208 = sub nsw i32 %203, %207
  %209 = sext i32 %208 to i64
  %210 = getelementptr inbounds i32, ptr %199, i64 %209
  %211 = load i32, ptr %210, align 4, !tbaa !11
  %212 = load i32, ptr %11, align 4, !tbaa !11
  %213 = add i32 %212, %211
  store i32 %213, ptr %11, align 4, !tbaa !11
  %214 = load ptr, ptr %13, align 8, !tbaa !83
  %215 = load ptr, ptr %7, align 8, !tbaa !24
  %216 = getelementptr inbounds i8, ptr %215, i64 13
  %217 = load i8, ptr %216, align 1, !tbaa !36
  %218 = zext i8 %217 to i32
  %219 = load ptr, ptr %8, align 8, !tbaa !24
  %220 = getelementptr inbounds i8, ptr %219, i64 13
  %221 = load i8, ptr %220, align 1, !tbaa !36
  %222 = zext i8 %221 to i32
  %223 = sub nsw i32 %218, %222
  %224 = sext i32 %223 to i64
  %225 = getelementptr inbounds i32, ptr %214, i64 %224
  %226 = load i32, ptr %225, align 4, !tbaa !11
  %227 = load i32, ptr %11, align 4, !tbaa !11
  %228 = add i32 %227, %226
  store i32 %228, ptr %11, align 4, !tbaa !11
  %229 = load ptr, ptr %13, align 8, !tbaa !83
  %230 = load ptr, ptr %7, align 8, !tbaa !24
  %231 = getelementptr inbounds i8, ptr %230, i64 14
  %232 = load i8, ptr %231, align 1, !tbaa !36
  %233 = zext i8 %232 to i32
  %234 = load ptr, ptr %8, align 8, !tbaa !24
  %235 = getelementptr inbounds i8, ptr %234, i64 14
  %236 = load i8, ptr %235, align 1, !tbaa !36
  %237 = zext i8 %236 to i32
  %238 = sub nsw i32 %233, %237
  %239 = sext i32 %238 to i64
  %240 = getelementptr inbounds i32, ptr %229, i64 %239
  %241 = load i32, ptr %240, align 4, !tbaa !11
  %242 = load i32, ptr %11, align 4, !tbaa !11
  %243 = add i32 %242, %241
  store i32 %243, ptr %11, align 4, !tbaa !11
  %244 = load ptr, ptr %13, align 8, !tbaa !83
  %245 = load ptr, ptr %7, align 8, !tbaa !24
  %246 = getelementptr inbounds i8, ptr %245, i64 15
  %247 = load i8, ptr %246, align 1, !tbaa !36
  %248 = zext i8 %247 to i32
  %249 = load ptr, ptr %8, align 8, !tbaa !24
  %250 = getelementptr inbounds i8, ptr %249, i64 15
  %251 = load i8, ptr %250, align 1, !tbaa !36
  %252 = zext i8 %251 to i32
  %253 = sub nsw i32 %248, %252
  %254 = sext i32 %253 to i64
  %255 = getelementptr inbounds i32, ptr %244, i64 %254
  %256 = load i32, ptr %255, align 4, !tbaa !11
  %257 = load i32, ptr %11, align 4, !tbaa !11
  %258 = add i32 %257, %256
  store i32 %258, ptr %11, align 4, !tbaa !11
  %259 = load i64, ptr %9, align 8, !tbaa !26
  %260 = load ptr, ptr %7, align 8, !tbaa !24
  %261 = getelementptr inbounds i8, ptr %260, i64 %259
  store ptr %261, ptr %7, align 8, !tbaa !24
  %262 = load i64, ptr %9, align 8, !tbaa !26
  %263 = load ptr, ptr %8, align 8, !tbaa !24
  %264 = getelementptr inbounds i8, ptr %263, i64 %262
  store ptr %264, ptr %8, align 8, !tbaa !24
  br label %265

265:                                              ; preds = %18
  %266 = load i32, ptr %12, align 4, !tbaa !11
  %267 = add nsw i32 %266, 1
  store i32 %267, ptr %12, align 4, !tbaa !11
  br label %14, !llvm.loop !84

268:                                              ; preds = %14
  %269 = load i32, ptr %11, align 4, !tbaa !11
  call void @llvm.lifetime.end.p0(i64 8, ptr %13) #9
  call void @llvm.lifetime.end.p0(i64 4, ptr %12) #9
  call void @llvm.lifetime.end.p0(i64 4, ptr %11) #9
  ret i32 %269
}