; Function Attrs: nofree norecurse nosync nounwind memory(argmem: read) uwtable
define internal i32 @sse16_c(ptr readnone captures(none) %0, ptr noundef readonly captures(none) %1, ptr noundef readonly captures(none) %2, i64 noundef %3, i32 noundef %4) #5 {
  %6 = icmp sgt i32 %4, 0
  br i1 %6, label %.lr.ph, label %._crit_edge

.lr.ph:                                           ; preds = %5, %.lr.ph
  %.077 = phi ptr [ %165, %.lr.ph ], [ %1, %5 ]
  %.07176 = phi i32 [ %167, %.lr.ph ], [ 0, %5 ]
  %.07275 = phi i32 [ %164, %.lr.ph ], [ 0, %5 ]
  %.07374 = phi ptr [ %166, %.lr.ph ], [ %2, %5 ]
  %7 = load i8, ptr %.077, align 1, !tbaa !20
  %8 = zext i8 %7 to i64
  %9 = load i8, ptr %.07374, align 1, !tbaa !20
  %10 = zext i8 %9 to i64
  %11 = sub nsw i64 %8, %10
  %12 = getelementptr inbounds i32, ptr getelementptr inbounds nuw (i8, ptr @ff_square_tab, i64 1024), i64 %11
  %13 = load i32, ptr %12, align 4, !tbaa !29
  %14 = add i32 %13, %.07275
  %15 = getelementptr inbounds nuw i8, ptr %.077, i64 1
  %16 = load i8, ptr %15, align 1, !tbaa !20
  %17 = zext i8 %16 to i64
  %18 = getelementptr inbounds nuw i8, ptr %.07374, i64 1
  %19 = load i8, ptr %18, align 1, !tbaa !20
  %20 = zext i8 %19 to i64
  %21 = sub nsw i64 %17, %20
  %22 = getelementptr inbounds i32, ptr getelementptr inbounds nuw (i8, ptr @ff_square_tab, i64 1024), i64 %21
  %23 = load i32, ptr %22, align 4, !tbaa !29
  %24 = add i32 %14, %23
  %25 = getelementptr inbounds nuw i8, ptr %.077, i64 2
  %26 = load i8, ptr %25, align 1, !tbaa !20
  %27 = zext i8 %26 to i64
  %28 = getelementptr inbounds nuw i8, ptr %.07374, i64 2
  %29 = load i8, ptr %28, align 1, !tbaa !20
  %30 = zext i8 %29 to i64
  %31 = sub nsw i64 %27, %30
  %32 = getelementptr inbounds i32, ptr getelementptr inbounds nuw (i8, ptr @ff_square_tab, i64 1024), i64 %31
  %33 = load i32, ptr %32, align 4, !tbaa !29
  %34 = add i32 %24, %33
  %35 = getelementptr inbounds nuw i8, ptr %.077, i64 3
  %36 = load i8, ptr %35, align 1, !tbaa !20
  %37 = zext i8 %36 to i64
  %38 = getelementptr inbounds nuw i8, ptr %.07374, i64 3
  %39 = load i8, ptr %38, align 1, !tbaa !20
  %40 = zext i8 %39 to i64
  %41 = sub nsw i64 %37, %40
  %42 = getelementptr inbounds i32, ptr getelementptr inbounds nuw (i8, ptr @ff_square_tab, i64 1024), i64 %41
  %43 = load i32, ptr %42, align 4, !tbaa !29
  %44 = add i32 %34, %43
  %45 = getelementptr inbounds nuw i8, ptr %.077, i64 4
  %46 = load i8, ptr %45, align 1, !tbaa !20
  %47 = zext i8 %46 to i64
  %48 = getelementptr inbounds nuw i8, ptr %.07374, i64 4
  %49 = load i8, ptr %48, align 1, !tbaa !20
  %50 = zext i8 %49 to i64
  %51 = sub nsw i64 %47, %50
  %52 = getelementptr inbounds i32, ptr getelementptr inbounds nuw (i8, ptr @ff_square_tab, i64 1024), i64 %51
  %53 = load i32, ptr %52, align 4, !tbaa !29
  %54 = add i32 %44, %53
  %55 = getelementptr inbounds nuw i8, ptr %.077, i64 5
  %56 = load i8, ptr %55, align 1, !tbaa !20
  %57 = zext i8 %56 to i64
  %58 = getelementptr inbounds nuw i8, ptr %.07374, i64 5
  %59 = load i8, ptr %58, align 1, !tbaa !20
  %60 = zext i8 %59 to i64
  %61 = sub nsw i64 %57, %60
  %62 = getelementptr inbounds i32, ptr getelementptr inbounds nuw (i8, ptr @ff_square_tab, i64 1024), i64 %61
  %63 = load i32, ptr %62, align 4, !tbaa !29
  %64 = add i32 %54, %63
  %65 = getelementptr inbounds nuw i8, ptr %.077, i64 6
  %66 = load i8, ptr %65, align 1, !tbaa !20
  %67 = zext i8 %66 to i64
  %68 = getelementptr inbounds nuw i8, ptr %.07374, i64 6
  %69 = load i8, ptr %68, align 1, !tbaa !20
  %70 = zext i8 %69 to i64
  %71 = sub nsw i64 %67, %70
  %72 = getelementptr inbounds i32, ptr getelementptr inbounds nuw (i8, ptr @ff_square_tab, i64 1024), i64 %71
  %73 = load i32, ptr %72, align 4, !tbaa !29
  %74 = add i32 %64, %73
  %75 = getelementptr inbounds nuw i8, ptr %.077, i64 7
  %76 = load i8, ptr %75, align 1, !tbaa !20
  %77 = zext i8 %76 to i64
  %78 = getelementptr inbounds nuw i8, ptr %.07374, i64 7
  %79 = load i8, ptr %78, align 1, !tbaa !20
  %80 = zext i8 %79 to i64
  %81 = sub nsw i64 %77, %80
  %82 = getelementptr inbounds i32, ptr getelementptr inbounds nuw (i8, ptr @ff_square_tab, i64 1024), i64 %81
  %83 = load i32, ptr %82, align 4, !tbaa !29
  %84 = add i32 %74, %83
  %85 = getelementptr inbounds nuw i8, ptr %.077, i64 8
  %86 = load i8, ptr %85, align 1, !tbaa !20
  %87 = zext i8 %86 to i64
  %88 = getelementptr inbounds nuw i8, ptr %.07374, i64 8
  %89 = load i8, ptr %88, align 1, !tbaa !20
  %90 = zext i8 %89 to i64
  %91 = sub nsw i64 %87, %90
  %92 = getelementptr inbounds i32, ptr getelementptr inbounds nuw (i8, ptr @ff_square_tab, i64 1024), i64 %91
  %93 = load i32, ptr %92, align 4, !tbaa !29
  %94 = add i32 %84, %93
  %95 = getelementptr inbounds nuw i8, ptr %.077, i64 9
  %96 = load i8, ptr %95, align 1, !tbaa !20
  %97 = zext i8 %96 to i64
  %98 = getelementptr inbounds nuw i8, ptr %.07374, i64 9
  %99 = load i8, ptr %98, align 1, !tbaa !20
  %100 = zext i8 %99 to i64
  %101 = sub nsw i64 %97, %100
  %102 = getelementptr inbounds i32, ptr getelementptr inbounds nuw (i8, ptr @ff_square_tab, i64 1024), i64 %101
  %103 = load i32, ptr %102, align 4, !tbaa !29
  %104 = add i32 %94, %103
  %105 = getelementptr inbounds nuw i8, ptr %.077, i64 10
  %106 = load i8, ptr %105, align 1, !tbaa !20
  %107 = zext i8 %106 to i64
  %108 = getelementptr inbounds nuw i8, ptr %.07374, i64 10
  %109 = load i8, ptr %108, align 1, !tbaa !20
  %110 = zext i8 %109 to i64
  %111 = sub nsw i64 %107, %110
  %112 = getelementptr inbounds i32, ptr getelementptr inbounds nuw (i8, ptr @ff_square_tab, i64 1024), i64 %111
  %113 = load i32, ptr %112, align 4, !tbaa !29
  %114 = add i32 %104, %113
  %115 = getelementptr inbounds nuw i8, ptr %.077, i64 11
  %116 = load i8, ptr %115, align 1, !tbaa !20
  %117 = zext i8 %116 to i64
  %118 = getelementptr inbounds nuw i8, ptr %.07374, i64 11
  %119 = load i8, ptr %118, align 1, !tbaa !20
  %120 = zext i8 %119 to i64
  %121 = sub nsw i64 %117, %120
  %122 = getelementptr inbounds i32, ptr getelementptr inbounds nuw (i8, ptr @ff_square_tab, i64 1024), i64 %121
  %123 = load i32, ptr %122, align 4, !tbaa !29
  %124 = add i32 %114, %123
  %125 = getelementptr inbounds nuw i8, ptr %.077, i64 12
  %126 = load i8, ptr %125, align 1, !tbaa !20
  %127 = zext i8 %126 to i64
  %128 = getelementptr inbounds nuw i8, ptr %.07374, i64 12
  %129 = load i8, ptr %128, align 1, !tbaa !20
  %130 = zext i8 %129 to i64
  %131 = sub nsw i64 %127, %130
  %132 = getelementptr inbounds i32, ptr getelementptr inbounds nuw (i8, ptr @ff_square_tab, i64 1024), i64 %131
  %133 = load i32, ptr %132, align 4, !tbaa !29
  %134 = add i32 %124, %133
  %135 = getelementptr inbounds nuw i8, ptr %.077, i64 13
  %136 = load i8, ptr %135, align 1, !tbaa !20
  %137 = zext i8 %136 to i64
  %138 = getelementptr inbounds nuw i8, ptr %.07374, i64 13
  %139 = load i8, ptr %138, align 1, !tbaa !20
  %140 = zext i8 %139 to i64
  %141 = sub nsw i64 %137, %140
  %142 = getelementptr inbounds i32, ptr getelementptr inbounds nuw (i8, ptr @ff_square_tab, i64 1024), i64 %141
  %143 = load i32, ptr %142, align 4, !tbaa !29
  %144 = add i32 %134, %143
  %145 = getelementptr inbounds nuw i8, ptr %.077, i64 14
  %146 = load i8, ptr %145, align 1, !tbaa !20
  %147 = zext i8 %146 to i64
  %148 = getelementptr inbounds nuw i8, ptr %.07374, i64 14
  %149 = load i8, ptr %148, align 1, !tbaa !20
  %150 = zext i8 %149 to i64
  %151 = sub nsw i64 %147, %150
  %152 = getelementptr inbounds i32, ptr getelementptr inbounds nuw (i8, ptr @ff_square_tab, i64 1024), i64 %151
  %153 = load i32, ptr %152, align 4, !tbaa !29
  %154 = add i32 %144, %153
  %155 = getelementptr inbounds nuw i8, ptr %.077, i64 15
  %156 = load i8, ptr %155, align 1, !tbaa !20
  %157 = zext i8 %156 to i64
  %158 = getelementptr inbounds nuw i8, ptr %.07374, i64 15
  %159 = load i8, ptr %158, align 1, !tbaa !20
  %160 = zext i8 %159 to i64
  %161 = sub nsw i64 %157, %160
  %162 = getelementptr inbounds i32, ptr getelementptr inbounds nuw (i8, ptr @ff_square_tab, i64 1024), i64 %161
  %163 = load i32, ptr %162, align 4, !tbaa !29
  %164 = add i32 %154, %163
  %165 = getelementptr inbounds i8, ptr %.077, i64 %3
  %166 = getelementptr inbounds i8, ptr %.07374, i64 %3
  %167 = add nuw nsw i32 %.07176, 1
  %exitcond.not = icmp eq i32 %167, %4
  br i1 %exitcond.not, label %._crit_edge, label %.lr.ph, !llvm.loop !74

._crit_edge:                                      ; preds = %.lr.ph, %5
  %.072.lcssa = phi i32 [ 0, %5 ], [ %164, %.lr.ph ]
  ret i32 %.072.lcssa
}